; Function Attrs: nounwind uwtable
define hidden noundef i32 @phpdbg_do_sh(ptr nocapture noundef readonly %0) #0 {
  %2 = getelementptr inbounds i8, ptr %0, i64 56
  %3 = load ptr, ptr %2, align 8
  %4 = tail call noalias ptr @popen(ptr noundef %3, ptr noundef nonnull @.str.127)
  %.not = icmp eq ptr %4, null
  br i1 %.not, label %7, label %5

5:                                                ; preds = %1
  %6 = tail call i32 @pclose(ptr noundef nonnull %4)
  br label %11

7:                                                ; preds = %1
  %8 = load i32, ptr getelementptr inbounds (%struct._zend_phpdbg_globals, ptr @phpdbg_globals, i64 0, i32 39, i64 1), align 4
  %9 = load ptr, ptr %2, align 8
  %10 = tail call i32 (i32, i32, ptr, ...) @phpdbg_print(i32 noundef 1, i32 noundef %8, ptr noundef nonnull @.str.128, ptr noundef %9) #24
  br label %11

11:                                               ; preds = %7, %5
  ret i32 0
}